; Function Attrs: mustprogress uwtable
define internal void @_ZNK5faiss12_GLOBAL__N_118IVFBinaryScannerL2INS_17HammingComputer16EE16scan_codes_rangeEmPKhPKliRNS_16RangeQueryResultE(ptr nocapture noundef nonnull readonly align 8 dereferenceable(48) %0, i64 noundef %1, ptr noalias nocapture noundef readonly %2, ptr noalias nocapture noundef readonly %3, i32 noundef %4, ptr noundef nonnull align 8 dereferenceable(24) %5) unnamed_addr #1 align 2 {
  %.not18 = icmp eq i64 %1, 0
  br i1 %.not18, label %._crit_edge, label %.lr.ph

.lr.ph:                                           ; preds = %6
  %7 = getelementptr inbounds i8, ptr %0, i64 8
  %8 = getelementptr inbounds i8, ptr %0, i64 32
  %9 = getelementptr inbounds i8, ptr %0, i64 40
  %10 = getelementptr inbounds i8, ptr %0, i64 24
  br label %11

11:                                               ; preds = %.lr.ph, %33
  %.017 = phi ptr [ %2, %.lr.ph ], [ %35, %33 ]
  %.01315 = phi i64 [ 0, %.lr.ph ], [ %36, %33 ]
  %12 = load <2 x i64>, ptr %.017, align 8
  %13 = load <2 x i64>, ptr %7, align 8
  %14 = xor <2 x i64> %13, %12
  %15 = tail call <2 x i64> @llvm.ctpop.v2i64(<2 x i64> %14), !range !210
  %16 = trunc <2 x i64> %15 to <2 x i32>
  %shift = shufflevector <2 x i32> %16, <2 x i32> poison, <2 x i32> <i32 1, i32 poison>
  %17 = add nuw nsw <2 x i32> %shift, %16
  %18 = extractelement <2 x i32> %17, i64 0
  %19 = icmp ult i32 %18, %4
  br i1 %19, label %20, label %33

20:                                               ; preds = %11
  %21 = load i8, ptr %8, align 8
  %22 = and i8 %21, 1
  %.not = icmp eq i8 %22, 0
  br i1 %.not, label %27, label %23

23:                                               ; preds = %20
  %24 = load i64, ptr %9, align 8
  %25 = shl i64 %24, 32
  %26 = or i64 %25, %.01315
  br label %30

27:                                               ; preds = %20
  %28 = getelementptr inbounds i64, ptr %3, i64 %.01315
  %29 = load i64, ptr %28, align 8
  br label %30

30:                                               ; preds = %27, %23
  %31 = phi i64 [ %26, %23 ], [ %29, %27 ]
  %32 = uitofp i32 %18 to float
  tail call void @_ZN5faiss16RangeQueryResult3addEfl(ptr noundef nonnull align 8 dereferenceable(24) %5, float noundef %32, i64 noundef %31)
  br label %33

33:                                               ; preds = %30, %11
  %34 = load i64, ptr %10, align 8
  %35 = getelementptr inbounds i8, ptr %.017, i64 %34
  %36 = add nuw i64 %.01315, 1
  %exitcond.not = icmp eq i64 %36, %1
  br i1 %exitcond.not, label %._crit_edge, label %11, !llvm.loop !214

._crit_edge:                                      ; preds = %33, %6
  ret void
}